target datalayout = "e-m:e-p270:32:32-p271:32:32-p272:64:64-i64:64-i128:128-f80:128-n8:16:32:64-S128"
target triple = "x86_64-pc-linux-gnu"

%struct.AVRational = type { i32, i32 }
%struct.NUTContext = type { ptr, ptr, [256 x %struct.FrameCode], [128 x i8], [128 x ptr], i64, ptr, ptr, i32, i32, i64, i64, i32, ptr, ptr, i32, i32, i64, ptr, i32, i32, i32 }
%struct.FrameCode = type { i16, i8, i16, i16, i16, i8, i8 }
%struct.AVFormatContext = type { ptr, ptr, ptr, ptr, ptr, i32, i32, ptr, i32, ptr, i32, ptr, ptr, i64, i64, i64, i32, i32, i32, i64, i64, ptr, i32, i32, ptr, i32, i32, i32, i32, ptr, i64, i32, i32, %struct.AVIOInterruptCB, i32, i32, i32, i32, i64, i32, i32, i32, i32, i32, i32, i32, i32, i32, i32, i32, i32, i64, i32, i32, i32, i32, i32, ptr, ptr, ptr, ptr, i32, ptr, ptr, ptr, ptr, i32, ptr, ptr, i64, ptr, ptr, ptr, i64 }
%struct.AVIOInterruptCB = type { ptr, ptr }
%struct.StreamContext = type { i32, i32, i64, i32, ptr, i32, i32, i32, ptr }

; Function Attrs: nounwind uwtable
define void @ff_nut_reset_ts(ptr noundef %0, i64 %1, i64 noundef %2) #0 {
  %4 = alloca %struct.AVRational, align 4
  %5 = alloca ptr, align 8
  %6 = alloca i64, align 8
  %7 = alloca i32, align 4
  store i64 %1, ptr %4, align 4
  store ptr %0, ptr %5, align 8, !tbaa !4
  store i64 %2, ptr %6, align 8, !tbaa !9
  call void @llvm.lifetime.start.p0(i64 4, ptr %7) #4
  store i32 0, ptr %7, align 4, !tbaa !11
  br label %8

8:                                                ; preds = %56, %3
  %9 = load i32, ptr %7, align 4, !tbaa !11
  %10 = load ptr, ptr %5, align 8, !tbaa !4
  %11 = getelementptr inbounds nuw %struct.NUTContext, ptr %10, i32 0, i32 1
  %12 = load ptr, ptr %11, align 8, !tbaa !13
  %13 = getelementptr inbounds nuw %struct.AVFormatContext, ptr %12, i32 0, i32 6
  %14 = load i32, ptr %13, align 4, !tbaa !21
  %15 = icmp ult i32 %9, %14
  br i1 %15, label %16, label %59

16:                                               ; preds = %8
  %17 = load i64, ptr %6, align 8, !tbaa !9
  %18 = getelementptr inbounds nuw %struct.AVRational, ptr %4, i32 0, i32 0
  %19 = load i32, ptr %18, align 4, !tbaa !35
  %20 = sext i32 %19 to i64
  %21 = load ptr, ptr %5, align 8, !tbaa !4
  %22 = getelementptr inbounds nuw %struct.NUTContext, ptr %21, i32 0, i32 6
  %23 = load ptr, ptr %22, align 8, !tbaa !37
  %24 = load i32, ptr %7, align 4, !tbaa !11
  %25 = sext i32 %24 to i64
  %26 = getelementptr inbounds %struct.StreamContext, ptr %23, i64 %25
  %27 = getelementptr inbounds nuw %struct.StreamContext, ptr %26, i32 0, i32 4
  %28 = load ptr, ptr %27, align 8, !tbaa !38
  %29 = getelementptr inbounds nuw %struct.AVRational, ptr %28, i32 0, i32 1
  %30 = load i32, ptr %29, align 4, !tbaa !41
  %31 = sext i32 %30 to i64
  %32 = mul nsw i64 %20, %31
  %33 = getelementptr inbounds nuw %struct.AVRational, ptr %4, i32 0, i32 1
  %34 = load i32, ptr %33, align 4, !tbaa !41
  %35 = sext i32 %34 to i64
  %36 = load ptr, ptr %5, align 8, !tbaa !4
  %37 = getelementptr inbounds nuw %struct.NUTContext, ptr %36, i32 0, i32 6
  %38 = load ptr, ptr %37, align 8, !tbaa !37
  %39 = load i32, ptr %7, align 4, !tbaa !11
  %40 = sext i32 %39 to i64
  %41 = getelementptr inbounds %struct.StreamContext, ptr %38, i64 %40
  %42 = getelementptr inbounds nuw %struct.StreamContext, ptr %41, i32 0, i32 4
  %43 = load ptr, ptr %42, align 8, !tbaa !38
  %44 = getelementptr inbounds nuw %struct.AVRational, ptr %43, i32 0, i32 0
  %45 = load i32, ptr %44, align 4, !tbaa !35
  %46 = sext i32 %45 to i64
  %47 = mul nsw i64 %35, %46
  %48 = call i64 @av_rescale_rnd(i64 noundef %17, i64 noundef %32, i64 noundef %47, i32 noundef 2) #5
  %49 = load ptr, ptr %5, align 8, !tbaa !4
  %50 = getelementptr inbounds nuw %struct.NUTContext, ptr %49, i32 0, i32 6
  %51 = load ptr, ptr %50, align 8, !tbaa !37
  %52 = load i32, ptr %7, align 4, !tbaa !11
  %53 = sext i32 %52 to i64
  %54 = getelementptr inbounds %struct.StreamContext, ptr %51, i64 %53
  %55 = getelementptr inbounds nuw %struct.StreamContext, ptr %54, i32 0, i32 2
  store i64 %48, ptr %55, align 8, !tbaa !42
  br label %56

56:                                               ; preds = %16
  %57 = load i32, ptr %7, align 4, !tbaa !11
  %58 = add nsw i32 %57, 1
  store i32 %58, ptr %7, align 4, !tbaa !11
  br label %8, !llvm.loop !43

59:                                               ; preds = %8
  call void @llvm.lifetime.end.p0(i64 4, ptr %7) #4
  ret void
}