; Function Attrs: nofree nosync nounwind memory(readwrite, inaccessiblemem: none) uwtable
define void @ff_nut_reset_ts(ptr noundef readonly captures(none) %0, i64 %1, i64 noundef %2) local_unnamed_addr #0 {
  %4 = getelementptr inbounds nuw i8, ptr %0, i64 8
  %5 = load ptr, ptr %4, align 8, !tbaa !4
  %6 = getelementptr inbounds nuw i8, ptr %5, i64 44
  %7 = load i32, ptr %6, align 4, !tbaa !17
  %.not = icmp eq i32 %7, 0
  br i1 %.not, label %._crit_edge, label %.lr.ph

.lr.ph:                                           ; preds = %3
  %sext = shl i64 %1, 32
  %8 = ashr exact i64 %sext, 32
  %9 = getelementptr inbounds nuw i8, ptr %0, i64 4248
  %10 = load ptr, ptr %9, align 8, !tbaa !31
  %11 = ashr i64 %1, 32
  %wide.trip.count = zext i32 %7 to i64
  br label %12

12:                                               ; preds = %.lr.ph, %12
  %indvars.iv = phi i64 [ 0, %.lr.ph ], [ %indvars.iv.next, %12 ]
  %13 = getelementptr inbounds nuw %struct.StreamContext, ptr %10, i64 %indvars.iv
  %14 = getelementptr inbounds nuw i8, ptr %13, i64 24
  %15 = load ptr, ptr %14, align 8, !tbaa !32
  %16 = getelementptr inbounds nuw i8, ptr %15, i64 4
  %17 = load i32, ptr %16, align 4, !tbaa !35
  %18 = sext i32 %17 to i64
  %19 = mul nsw i64 %8, %18
  %20 = load i32, ptr %15, align 4, !tbaa !37
  %21 = sext i32 %20 to i64
  %22 = mul nsw i64 %11, %21
  %23 = tail call i64 @av_rescale_rnd(i64 noundef %2, i64 noundef %19, i64 noundef %22, i32 noundef 2) #6
  %24 = getelementptr inbounds nuw i8, ptr %13, i64 8
  store i64 %23, ptr %24, align 8, !tbaa !38
  %indvars.iv.next = add nuw nsw i64 %indvars.iv, 1
  %exitcond.not = icmp eq i64 %indvars.iv.next, %wide.trip.count
  br i1 %exitcond.not, label %._crit_edge, label %12, !llvm.loop !39

._crit_edge:                                      ; preds = %12, %3
  ret void
}